target datalayout = "e-m:e-p270:32:32-p271:32:32-p272:64:64-i64:64-i128:128-f80:128-n8:16:32:64-S128"
target triple = "x86_64-unknown-linux-gnu"

%struct.SHA256state_st = type { [8 x i32], i32, i32, [16 x i32], i32, i32 }

; Function Attrs: nounwind uwtable
define internal void @crypto_store_htobe32(ptr noundef %dst, i32 noundef %v) #0 {
entry:
  %dst.addr = alloca ptr, align 8
  %v.addr = alloca i32, align 4
  store ptr %dst, ptr %dst.addr, align 8
  store i32 %v, ptr %v.addr, align 4
  %0 = load i32, ptr %v.addr, align 4
  %call = call i32 @__bswap_32(i32 noundef %0)
  store i32 %call, ptr %v.addr, align 4
  %1 = load ptr, ptr %dst.addr, align 8
  call void @llvm.memcpy.p0.p0.i64(ptr align 1 %1, ptr align 4 %v.addr, i64 4, i1 false)
  ret void
}

; Function Attrs: nounwind uwtable
define internal i32 @__bswap_32(i32 noundef %__bsx) #0 {
entry:
  %__bsx.addr = alloca i32, align 4
  store i32 %__bsx, ptr %__bsx.addr, align 4
  %0 = load i32, ptr %__bsx.addr, align 4
  %and = and i32 %0, -16777216
  %shr = lshr i32 %and, 24
  %1 = load i32, ptr %__bsx.addr, align 4
  %and1 = and i32 %1, 16711680
  %shr2 = lshr i32 %and1, 8
  %or = or i32 %shr, %shr2
  %2 = load i32, ptr %__bsx.addr, align 4
  %and3 = and i32 %2, 65280
  %shl = shl i32 %and3, 8
  %or4 = or i32 %or, %shl
  %3 = load i32, ptr %__bsx.addr, align 4
  %and5 = and i32 %3, 255
  %shl6 = shl i32 %and5, 24
  %or7 = or i32 %or4, %shl6
  ret i32 %or7
}

; Function Attrs: nounwind uwtable
define dso_local i32 @SHA256_Final(ptr noundef %md, ptr noundef %c) #0 {
entry:
  %retval = alloca i32, align 4
  %md.addr = alloca ptr, align 8
  %c.addr = alloca ptr, align 8
  %p = alloca ptr, align 8
  %n = alloca i64, align 8
  %nn = alloca i32, align 4
  store ptr %md, ptr %md.addr, align 8
  store ptr %c, ptr %c.addr, align 8
  %0 = load ptr, ptr %c.addr, align 8
  %data = getelementptr inbounds %struct.SHA256state_st, ptr %0, i32 0, i32 3
  %arraydecay = getelementptr inbounds [16 x i32], ptr %data, i64 0, i64 0
  store ptr %arraydecay, ptr %p, align 8
  %1 = load ptr, ptr %c.addr, align 8
  %num = getelementptr inbounds %struct.SHA256state_st, ptr %1, i32 0, i32 4
  %2 = load i32, ptr %num, align 4
  %conv = zext i32 %2 to i64
  store i64 %conv, ptr %n, align 8
  %3 = load ptr, ptr %p, align 8
  %4 = load i64, ptr %n, align 8
  %arrayidx = getelementptr inbounds i8, ptr %3, i64 %4
  store i8 -128, ptr %arrayidx, align 1
  %5 = load i64, ptr %n, align 8
  %inc = add i64 %5, 1
  store i64 %inc, ptr %n, align 8
  %6 = load i64, ptr %n, align 8
  %cmp = icmp ugt i64 %6, 56
  br i1 %cmp, label %if.then, label %if.end

if.then:                                          ; preds = %entry
  %7 = load ptr, ptr %p, align 8
  %8 = load i64, ptr %n, align 8
  %add.ptr = getelementptr inbounds i8, ptr %7, i64 %8
  %9 = load i64, ptr %n, align 8
  %sub = sub i64 64, %9
  call void @llvm.memset.p0.i64(ptr align 1 %add.ptr, i8 0, i64 %sub, i1 false)
  store i64 0, ptr %n, align 8
  %10 = load ptr, ptr %c.addr, align 8
  %11 = load ptr, ptr %p, align 8
  call void @sha256_block_data_order(ptr noundef %10, ptr noundef %11, i64 noundef 1)
  br label %if.end

if.end:                                           ; preds = %if.then, %entry
  %12 = load ptr, ptr %p, align 8
  %13 = load i64, ptr %n, align 8
  %add.ptr2 = getelementptr inbounds i8, ptr %12, i64 %13
  %14 = load i64, ptr %n, align 8
  %sub3 = sub i64 56, %14
  call void @llvm.memset.p0.i64(ptr align 1 %add.ptr2, i8 0, i64 %sub3, i1 false)
  %15 = load ptr, ptr %c.addr, align 8
  %Nh = getelementptr inbounds %struct.SHA256state_st, ptr %15, i32 0, i32 2
  %16 = load i32, ptr %Nh, align 4
  %call = call i32 @__bswap_32(i32 noundef %16)
  %17 = load ptr, ptr %c.addr, align 8
  %data4 = getelementptr inbounds %struct.SHA256state_st, ptr %17, i32 0, i32 3
  %arrayidx5 = getelementptr inbounds [16 x i32], ptr %data4, i64 0, i64 14
  store i32 %call, ptr %arrayidx5, align 4
  %18 = load ptr, ptr %c.addr, align 8
  %Nl = getelementptr inbounds %struct.SHA256state_st, ptr %18, i32 0, i32 1
  %19 = load i32, ptr %Nl, align 4
  %call6 = call i32 @__bswap_32(i32 noundef %19)
  %20 = load ptr, ptr %c.addr, align 8
  %data7 = getelementptr inbounds %struct.SHA256state_st, ptr %20, i32 0, i32 3
  %arrayidx8 = getelementptr inbounds [16 x i32], ptr %data7, i64 0, i64 15
  store i32 %call6, ptr %arrayidx8, align 4
  %21 = load ptr, ptr %c.addr, align 8
  %22 = load ptr, ptr %p, align 8
  call void @sha256_block_data_order(ptr noundef %21, ptr noundef %22, i64 noundef 1)
  %23 = load ptr, ptr %c.addr, align 8
  %num9 = getelementptr inbounds %struct.SHA256state_st, ptr %23, i32 0, i32 4
  store i32 0, ptr %num9, align 4
  %24 = load ptr, ptr %p, align 8
  call void @llvm.memset.p0.i64(ptr align 1 %24, i8 0, i64 64, i1 false)
  %25 = load ptr, ptr %c.addr, align 8
  %md_len = getelementptr inbounds %struct.SHA256state_st, ptr %25, i32 0, i32 5
  %26 = load i32, ptr %md_len, align 4
  switch i32 %26, label %sw.default [
    i32 32, label %sw.bb
  ]

sw.bb:                                            ; preds = %if.end
  store i32 0, ptr %nn, align 4
  br label %for.cond

for.cond:                                         ; preds = %for.inc, %sw.bb
  %27 = load i32, ptr %nn, align 4
  %cmp10 = icmp ult i32 %27, 8
  br i1 %cmp10, label %for.body, label %for.end

for.body:                                         ; preds = %for.cond
  %28 = load ptr, ptr %md.addr, align 8
  %29 = load ptr, ptr %c.addr, align 8
  %h = getelementptr inbounds %struct.SHA256state_st, ptr %29, i32 0, i32 0
  %30 = load i32, ptr %nn, align 4
  %idxprom = zext i32 %30 to i64
  %arrayidx12 = getelementptr inbounds [8 x i32], ptr %h, i64 0, i64 %idxprom
  %31 = load i32, ptr %arrayidx12, align 4
  call void @crypto_store_htobe32(ptr noundef %28, i32 noundef %31)
  %32 = load ptr, ptr %md.addr, align 8
  %add.ptr13 = getelementptr inbounds i8, ptr %32, i64 4
  store ptr %add.ptr13, ptr %md.addr, align 8
  br label %for.inc

for.inc:                                          ; preds = %for.body
  %33 = load i32, ptr %nn, align 4
  %inc14 = add i32 %33, 1
  store i32 %inc14, ptr %nn, align 4
  br label %for.cond, !llvm.loop !8

for.end:                                          ; preds = %for.cond
  br label %sw.epilog

sw.default:                                       ; preds = %if.end
  %34 = load ptr, ptr %c.addr, align 8
  %md_len15 = getelementptr inbounds %struct.SHA256state_st, ptr %34, i32 0, i32 5
  %35 = load i32, ptr %md_len15, align 4
  %cmp16 = icmp ugt i32 %35, 32
  br i1 %cmp16, label %if.then18, label %if.end19

if.then18:                                        ; preds = %sw.default
  store i32 0, ptr %retval, align 4
  br label %return

if.end19:                                         ; preds = %sw.default
  store i32 0, ptr %nn, align 4
  br label %for.cond20

for.cond20:                                       ; preds = %for.inc29, %if.end19
  %36 = load i32, ptr %nn, align 4
  %37 = load ptr, ptr %c.addr, align 8
  %md_len21 = getelementptr inbounds %struct.SHA256state_st, ptr %37, i32 0, i32 5
  %38 = load i32, ptr %md_len21, align 4
  %div = udiv i32 %38, 4
  %cmp22 = icmp ult i32 %36, %div
  br i1 %cmp22, label %for.body24, label %for.end31

for.body24:                                       ; preds = %for.cond20
  %39 = load ptr, ptr %md.addr, align 8
  %40 = load ptr, ptr %c.addr, align 8
  %h25 = getelementptr inbounds %struct.SHA256state_st, ptr %40, i32 0, i32 0
  %41 = load i32, ptr %nn, align 4
  %idxprom26 = zext i32 %41 to i64
  %arrayidx27 = getelementptr inbounds [8 x i32], ptr %h25, i64 0, i64 %idxprom26
  %42 = load i32, ptr %arrayidx27, align 4
  call void @crypto_store_htobe32(ptr noundef %39, i32 noundef %42)
  %43 = load ptr, ptr %md.addr, align 8
  %add.ptr28 = getelementptr inbounds i8, ptr %43, i64 4
  store ptr %add.ptr28, ptr %md.addr, align 8
  br label %for.inc29

for.inc29:                                        ; preds = %for.body24
  %44 = load i32, ptr %nn, align 4
  %inc30 = add i32 %44, 1
  store i32 %inc30, ptr %nn, align 4
  br label %for.cond20, !llvm.loop !9

for.end31:                                        ; preds = %for.cond20
  br label %sw.epilog

sw.epilog:                                        ; preds = %for.end31, %for.end
  store i32 1, ptr %retval, align 4
  br label %return

return:                                           ; preds = %sw.epilog, %if.then18
  %45 = load i32, ptr %retval, align 4
  ret i32 %45
}