; Function Attrs: nofree norecurse nosync nounwind memory(readwrite, inaccessiblemem: none) uwtable
define dso_local noundef i32 @SHA256_Final(ptr nocapture noundef writeonly %md, ptr noundef %c) local_unnamed_addr #2 {
entry:
  %data = getelementptr inbounds i8, ptr %c, i64 40
  %num = getelementptr inbounds i8, ptr %c, i64 104
  %0 = load i32, ptr %num, align 4
  %conv = zext i32 %0 to i64
  %arrayidx = getelementptr inbounds i8, ptr %data, i64 %conv
  store i8 -128, ptr %arrayidx, align 1
  %inc = add nuw nsw i64 %conv, 1
  %cmp = icmp ugt i32 %0, 55
  br i1 %cmp, label %if.then, label %if.end

if.then:                                          ; preds = %entry
  %add.ptr = getelementptr inbounds i8, ptr %data, i64 %inc
  %sub = sub nsw i64 63, %conv
  tail call void @llvm.memset.p0.i64(ptr nonnull align 1 %add.ptr, i8 0, i64 %sub, i1 false)
  tail call fastcc void @sha256_block_data_order(ptr noundef nonnull %c, ptr noundef nonnull %data, i64 noundef 1)
  br label %if.end

if.end:                                           ; preds = %if.then, %entry
  %n.0 = phi i64 [ 0, %if.then ], [ %inc, %entry ]
  %add.ptr2 = getelementptr inbounds i8, ptr %data, i64 %n.0
  %sub3 = sub nuw nsw i64 56, %n.0
  tail call void @llvm.memset.p0.i64(ptr nonnull align 1 %add.ptr2, i8 0, i64 %sub3, i1 false)
  %Nh = getelementptr inbounds i8, ptr %c, i64 36
  %1 = load i32, ptr %Nh, align 4
  %or7.i = tail call noundef i32 @llvm.bswap.i32(i32 %1)
  %arrayidx5 = getelementptr inbounds i8, ptr %c, i64 96
  store i32 %or7.i, ptr %arrayidx5, align 4
  %Nl = getelementptr inbounds i8, ptr %c, i64 32
  %2 = load i32, ptr %Nl, align 4
  %or7.i34 = tail call noundef i32 @llvm.bswap.i32(i32 %2)
  %arrayidx8 = getelementptr inbounds i8, ptr %c, i64 100
  store i32 %or7.i34, ptr %arrayidx8, align 4
  tail call fastcc void @sha256_block_data_order(ptr noundef nonnull %c, ptr noundef nonnull %data, i64 noundef 1)
  %md_len = getelementptr inbounds i8, ptr %c, i64 108
  tail call void @llvm.memset.p0.i64(ptr noundef nonnull align 1 dereferenceable(68) %data, i8 0, i64 68, i1 false)
  %3 = load i32, ptr %md_len, align 4
  %cond = icmp eq i32 %3, 32
  br i1 %cond, label %for.body, label %sw.default

for.body:                                         ; preds = %if.end, %for.body
  %indvars.iv45 = phi i64 [ %indvars.iv.next46, %for.body ], [ 0, %if.end ]
  %md.addr.041 = phi ptr [ %add.ptr13, %for.body ], [ %md, %if.end ]
  %arrayidx12 = getelementptr inbounds [8 x i32], ptr %c, i64 0, i64 %indvars.iv45
  %4 = load i32, ptr %arrayidx12, align 4
  %or7.i.i = tail call noundef i32 @llvm.bswap.i32(i32 %4)
  store i32 %or7.i.i, ptr %md.addr.041, align 1
  %add.ptr13 = getelementptr inbounds i8, ptr %md.addr.041, i64 4
  %indvars.iv.next46 = add nuw nsw i64 %indvars.iv45, 1
  %exitcond.not = icmp eq i64 %indvars.iv.next46, 8
  br i1 %exitcond.not, label %return, label %for.body, !llvm.loop !8

sw.default:                                       ; preds = %if.end
  %cmp16 = icmp ugt i32 %3, 32
  br i1 %cmp16, label %return, label %for.cond20.preheader

for.cond20.preheader:                             ; preds = %sw.default
  %cmp2238.not = icmp ult i32 %3, 4
  br i1 %cmp2238.not, label %return, label %for.body24

for.body24:                                       ; preds = %for.cond20.preheader, %for.body24
  %indvars.iv = phi i64 [ %indvars.iv.next, %for.body24 ], [ 0, %for.cond20.preheader ]
  %md.addr.139 = phi ptr [ %add.ptr28, %for.body24 ], [ %md, %for.cond20.preheader ]
  %arrayidx27 = getelementptr inbounds [8 x i32], ptr %c, i64 0, i64 %indvars.iv
  %5 = load i32, ptr %arrayidx27, align 4
  %or7.i.i35 = tail call noundef i32 @llvm.bswap.i32(i32 %5)
  store i32 %or7.i.i35, ptr %md.addr.139, align 1
  %add.ptr28 = getelementptr inbounds i8, ptr %md.addr.139, i64 4
  %indvars.iv.next = add nuw nsw i64 %indvars.iv, 1
  %6 = load i32, ptr %md_len, align 4
  %div33 = lshr i32 %6, 2
  %7 = zext nneg i32 %div33 to i64
  %cmp22 = icmp ult i64 %indvars.iv.next, %7
  br i1 %cmp22, label %for.body24, label %return, !llvm.loop !9

return:                                           ; preds = %for.body24, %for.body, %for.cond20.preheader, %sw.default
  %retval.0 = phi i32 [ 0, %sw.default ], [ 1, %for.cond20.preheader ], [ 1, %for.body ], [ 1, %for.body24 ]
  ret i32 %retval.0
}